target datalayout = "e-m:e-p270:32:32-p271:32:32-p272:64:64-i64:64-i128:128-f80:128-n8:16:32:64-S128"
target triple = "x86_64-pc-linux-gnu"

%struct._psqlSettings = type { ptr, i32, ptr, i8, ptr, ptr, %struct.printQueryOpt, ptr, ptr, ptr, i8, i8, i32, i32, ptr, ptr, i8, [4 x ptr], i8, i32, ptr, i8, i32, ptr, ptr, i64, i64, i8, ptr, ptr, ptr, i8, i8, i8, i8, i8, i8, i8, i32, i32, i32, i32, i32, i32, i32, i32, ptr, ptr, ptr, i32, i8, i32 }
%struct.printQueryOpt = type { %struct.printTableOpt, ptr, ptr, ptr, i8, ptr, i32 }
%struct.printTableOpt = type { i32, i16, i32, i32, i16, i16, i32, i8, i8, i8, i8, i64, ptr, %struct.separator, %struct.separator, [2 x i8], i8, ptr, i32, i32, i32, i32, i32, i32 }
%struct.separator = type { ptr, i8 }
%struct.PQExpBufferData = type { ptr, i64, i64 }

@pset = external global %struct._psqlSettings, align 8
@.str.1 = private unnamed_addr constant [7 x i8] c"Schema\00", align 1
@.str.2 = private unnamed_addr constant [5 x i8] c"Name\00", align 1
@.str.3 = private unnamed_addr constant [17 x i8] c"Result data type\00", align 1
@.str.4 = private unnamed_addr constant [20 x i8] c"Argument data types\00", align 1
@.str.5 = private unnamed_addr constant [171 x i8] c"  pg_catalog.obj_description(p.oid, 'pg_proc') as \22%s\22\0AFROM pg_catalog.pg_proc p\0A     LEFT JOIN pg_catalog.pg_namespace n ON n.oid = p.pronamespace\0AWHERE p.prokind = 'a'\0A\00", align 1
@.str.6 = private unnamed_addr constant [12 x i8] c"Description\00", align 1
@.str.7 = private unnamed_addr constant [166 x i8] c"  pg_catalog.obj_description(p.oid, 'pg_proc') as \22%s\22\0AFROM pg_catalog.pg_proc p\0A     LEFT JOIN pg_catalog.pg_namespace n ON n.oid = p.pronamespace\0AWHERE p.proisagg\0A\00", align 1
@.str.8 = private unnamed_addr constant [81 x i8] c"      AND n.nspname <> 'pg_catalog'\0A      AND n.nspname <> 'information_schema'\0A\00", align 1
@.str.9 = private unnamed_addr constant [10 x i8] c"n.nspname\00", align 1
@.str.10 = private unnamed_addr constant [10 x i8] c"p.proname\00", align 1
@.str.11 = private unnamed_addr constant [41 x i8] c"pg_catalog.pg_function_is_visible(p.oid)\00", align 1
@.str.12 = private unnamed_addr constant [18 x i8] c"ORDER BY 1, 2, 4;\00", align 1
@.str.13 = private unnamed_addr constant [28 x i8] c"List of aggregate functions\00", align 1

; Function Attrs: nounwind uwtable
define dso_local zeroext i1 @describeAggregates(ptr noundef %0, i1 noundef zeroext %1, i1 noundef zeroext %2) #0 {
  %4 = alloca i1, align 1
  %5 = alloca ptr, align 8
  %6 = alloca i8, align 1
  %7 = alloca i8, align 1
  %8 = alloca %struct.PQExpBufferData, align 8
  %9 = alloca ptr, align 8
  %10 = alloca %struct.printQueryOpt, align 8
  %11 = alloca i32, align 4
  store ptr %0, ptr %5, align 8
  %12 = zext i1 %1 to i8
  store i8 %12, ptr %6, align 1
  %13 = zext i1 %2 to i8
  store i8 %13, ptr %7, align 1
  call void @llvm.lifetime.start.p0(i64 24, ptr %8) #8
  call void @llvm.lifetime.start.p0(i64 8, ptr %9) #8
  call void @llvm.lifetime.start.p0(i64 168, ptr %10) #8
  call void @llvm.memcpy.p0.p0.i64(ptr align 8 %10, ptr align 8 getelementptr inbounds nuw (%struct._psqlSettings, ptr @pset, i32 0, i32 6), i64 168, i1 false)
  call void @initPQExpBuffer(ptr noundef %8)
  call void (ptr, ptr, ...) @printfPQExpBuffer(ptr noundef %8, ptr noundef @.str, ptr noundef @.str.1, ptr noundef @.str.2, ptr noundef @.str.3, ptr noundef @.str.4)
  %14 = load i32, ptr getelementptr inbounds nuw (%struct._psqlSettings, ptr @pset, i32 0, i32 22), align 4
  %15 = icmp sge i32 %14, 110000
  br i1 %15, label %16, label %17

16:                                               ; preds = %3
  call void (ptr, ptr, ...) @appendPQExpBuffer(ptr noundef %8, ptr noundef @.str.5, ptr noundef @.str.6)
  br label %18

17:                                               ; preds = %3
  call void (ptr, ptr, ...) @appendPQExpBuffer(ptr noundef %8, ptr noundef @.str.7, ptr noundef @.str.6)
  br label %18

18:                                               ; preds = %17, %16
  %19 = load i8, ptr %7, align 1, !range !4, !noundef !5
  %20 = trunc i8 %19 to i1
  br i1 %20, label %25, label %21

21:                                               ; preds = %18
  %22 = load ptr, ptr %5, align 8
  %23 = icmp ne ptr %22, null
  br i1 %23, label %25, label %24

24:                                               ; preds = %21
  call void @appendPQExpBufferStr(ptr noundef %8, ptr noundef @.str.8)
  br label %25

25:                                               ; preds = %24, %21, %18
  %26 = load ptr, ptr %5, align 8
  %27 = call zeroext i1 @validateSQLNamePattern(ptr noundef %8, ptr noundef %26, i1 noundef zeroext true, i1 noundef zeroext false, ptr noundef @.str.9, ptr noundef @.str.10, ptr noundef null, ptr noundef @.str.11, ptr noundef null, i32 noundef 3)
  br i1 %27, label %29, label %28

28:                                               ; preds = %25
  call void @termPQExpBuffer(ptr noundef %8)
  store i1 false, ptr %4, align 1
  store i32 1, ptr %11, align 4
  br label %43

29:                                               ; preds = %25
  call void @appendPQExpBufferStr(ptr noundef %8, ptr noundef @.str.12)
  %30 = getelementptr inbounds nuw %struct.PQExpBufferData, ptr %8, i32 0, i32 0
  %31 = load ptr, ptr %30, align 8
  %32 = call ptr @PSQLexec(ptr noundef %31)
  store ptr %32, ptr %9, align 8
  call void @termPQExpBuffer(ptr noundef %8)
  %33 = load ptr, ptr %9, align 8
  %34 = icmp ne ptr %33, null
  br i1 %34, label %36, label %35

35:                                               ; preds = %29
  store i1 false, ptr %4, align 1
  store i32 1, ptr %11, align 4
  br label %43

36:                                               ; preds = %29
  %37 = getelementptr inbounds nuw %struct.printQueryOpt, ptr %10, i32 0, i32 2
  store ptr @.str.13, ptr %37, align 8
  %38 = getelementptr inbounds nuw %struct.printQueryOpt, ptr %10, i32 0, i32 4
  store i8 1, ptr %38, align 8
  %39 = load ptr, ptr %9, align 8
  %40 = load ptr, ptr getelementptr inbounds nuw (%struct._psqlSettings, ptr @pset, i32 0, i32 2), align 8
  %41 = load ptr, ptr getelementptr inbounds nuw (%struct._psqlSettings, ptr @pset, i32 0, i32 28), align 8
  call void @printQuery(ptr noundef %39, ptr noundef %10, ptr noundef %40, i1 noundef zeroext false, ptr noundef %41)
  %42 = load ptr, ptr %9, align 8
  call void @PQclear(ptr noundef %42)
  store i1 true, ptr %4, align 1
  store i32 1, ptr %11, align 4
  br label %43

43:                                               ; preds = %36, %35, %28
  call void @llvm.lifetime.end.p0(i64 168, ptr %10) #8
  call void @llvm.lifetime.end.p0(i64 8, ptr %9) #8
  call void @llvm.lifetime.end.p0(i64 24, ptr %8) #8
  %44 = load i1, ptr %4, align 1
  ret i1 %44
}