; Function Attrs: nounwind uwtable
define dso_local noundef zeroext i1 @describeAggregates(ptr noundef %0, i1 noundef zeroext %1, i1 noundef zeroext %2) local_unnamed_addr #0 {
  %4 = alloca %struct.PQExpBufferData, align 8
  %5 = alloca %struct.printQueryOpt, align 8
  call void @llvm.lifetime.start.p0(i64 24, ptr nonnull %4) #8
  call void @llvm.lifetime.start.p0(i64 168, ptr nonnull %5) #8
  call void @llvm.memcpy.p0.p0.i64(ptr noundef nonnull align 8 dereferenceable(168) %5, ptr noundef nonnull align 8 dereferenceable(168) getelementptr inbounds nuw (i8, ptr @pset, i64 48), i64 168, i1 false)
  call void @initPQExpBuffer(ptr noundef nonnull %4) #8
  call void (ptr, ptr, ...) @printfPQExpBuffer(ptr noundef nonnull %4, ptr noundef nonnull @.str, ptr noundef nonnull @.str.1, ptr noundef nonnull @.str.2, ptr noundef nonnull @.str.3, ptr noundef nonnull @.str.4) #8
  %6 = load i32, ptr getelementptr inbounds nuw (i8, ptr @pset, i64 332), align 4
  %7 = icmp sgt i32 %6, 109999
  %.str.5..str.7 = select i1 %7, ptr @.str.5, ptr @.str.7
  call void (ptr, ptr, ...) @appendPQExpBuffer(ptr noundef nonnull %4, ptr noundef nonnull %.str.5..str.7, ptr noundef nonnull @.str.6) #8
  %8 = icmp ne ptr %0, null
  %or.cond = or i1 %8, %2
  br i1 %or.cond, label %10, label %9

9:                                                ; preds = %3
  call void @appendPQExpBufferStr(ptr noundef nonnull %4, ptr noundef nonnull @.str.8) #8
  br label %10

10:                                               ; preds = %9, %3
  %11 = call fastcc zeroext i1 @validateSQLNamePattern(ptr noundef %4, ptr noundef %0, i1 noundef zeroext true, i1 noundef zeroext false, ptr noundef nonnull @.str.9, ptr noundef nonnull @.str.10, ptr noundef null, ptr noundef nonnull @.str.11, ptr noundef null, i32 noundef 3)
  br i1 %11, label %13, label %12

12:                                               ; preds = %10
  call void @termPQExpBuffer(ptr noundef nonnull %4) #8
  br label %21

13:                                               ; preds = %10
  call void @appendPQExpBufferStr(ptr noundef nonnull %4, ptr noundef nonnull @.str.12) #8
  %14 = load ptr, ptr %4, align 8
  %15 = call ptr @PSQLexec(ptr noundef %14) #8
  call void @termPQExpBuffer(ptr noundef nonnull %4) #8
  %.not = icmp eq ptr %15, null
  br i1 %.not, label %21, label %16

16:                                               ; preds = %13
  %17 = getelementptr inbounds nuw i8, ptr %5, i64 128
  store ptr @.str.13, ptr %17, align 8
  %18 = getelementptr inbounds nuw i8, ptr %5, i64 144
  store i8 1, ptr %18, align 8
  %19 = load ptr, ptr getelementptr inbounds nuw (i8, ptr @pset, i64 16), align 8
  %20 = load ptr, ptr getelementptr inbounds nuw (i8, ptr @pset, i64 376), align 8
  call void @printQuery(ptr noundef nonnull %15, ptr noundef nonnull %5, ptr noundef %19, i1 noundef zeroext false, ptr noundef %20) #8
  call void @PQclear(ptr noundef nonnull %15) #8
  br label %21

21:                                               ; preds = %13, %16, %12
  %.0 = phi i1 [ true, %16 ], [ false, %12 ], [ false, %13 ]
  call void @llvm.lifetime.end.p0(i64 168, ptr nonnull %5) #8
  call void @llvm.lifetime.end.p0(i64 24, ptr nonnull %4) #8
  ret i1 %.0
}